; Function Attrs: mustprogress nofree norecurse nosync nounwind willreturn memory(argmem: readwrite) uwtable
define void @_ZN11duckdb_zstd20ZSTD_checkContinuityEPNS_11ZSTD_DCtx_sEPKvm(ptr noundef captures(none) %0, ptr noundef %1, i64 noundef %2) local_unnamed_addr #0 {
  %4 = getelementptr inbounds nuw i8, ptr %0, i64 29888
  %5 = load ptr, ptr %4, align 8, !tbaa !142
  %6 = icmp ne ptr %1, %5
  %7 = icmp ne i64 %2, 0
  %or.cond = and i1 %7, %6
  br i1 %or.cond, label %8, label %16

8:                                                ; preds = %3
  %9 = getelementptr inbounds nuw i8, ptr %0, i64 29912
  store ptr %5, ptr %9, align 8, !tbaa !77
  %10 = getelementptr inbounds nuw i8, ptr %0, i64 29896
  %11 = load ptr, ptr %10, align 8, !tbaa !76
  %12 = ptrtoint ptr %5 to i64
  %13 = ptrtoint ptr %11 to i64
  %.neg = sub i64 %13, %12
  %14 = getelementptr inbounds i8, ptr %1, i64 %.neg
  %15 = getelementptr inbounds nuw i8, ptr %0, i64 29904
  store ptr %14, ptr %15, align 8, !tbaa !72
  store ptr %1, ptr %10, align 8, !tbaa !76
  store ptr %1, ptr %4, align 8, !tbaa !142
  br label %16

16:                                               ; preds = %8, %3
  ret void
}